; Function Attrs: mustprogress nofree norecurse nosync nounwind memory(read, argmem: readwrite, inaccessiblemem: none) uwtable
define internal noundef i64 @_ZNK5faiss12_GLOBAL__N_118IVFBinaryScannerL2INS_17HammingComputer20EE10scan_codesEmPKhPKlPiPlm(ptr nocapture noundef nonnull readonly align 8 dereferenceable(56) %0, i64 noundef %1, ptr noalias nocapture noundef readonly %2, ptr noalias nocapture noundef readonly %3, ptr noalias nocapture noundef %4, ptr noalias nocapture noundef %5, i64 noundef %6) unnamed_addr #15 align 2 {
  %.not24 = icmp eq i64 %1, 0
  br i1 %.not24, label %._crit_edge, label %.lr.ph

.lr.ph:                                           ; preds = %7
  %8 = getelementptr inbounds i8, ptr %0, i64 8
  %9 = load <2 x i64>, ptr %8, align 8
  %10 = getelementptr inbounds i8, ptr %0, i64 24
  %11 = load i32, ptr %10, align 8
  %12 = getelementptr inbounds i8, ptr %0, i64 40
  %13 = load i8, ptr %12, align 8
  %14 = and i8 %13, 1
  %.not = icmp eq i8 %14, 0
  %15 = getelementptr inbounds i8, ptr %0, i64 48
  %16 = load i64, ptr %15, align 8
  %17 = shl i64 %16, 32
  %18 = getelementptr inbounds i8, ptr %4, i64 -4
  %19 = getelementptr inbounds i8, ptr %5, i64 -8
  %20 = icmp ult i64 %6, 2
  %.phi.trans.insert.i = getelementptr inbounds i32, ptr %18, i64 %6
  %21 = getelementptr inbounds i8, ptr %0, i64 32
  %22 = load i64, ptr %21, align 8
  br label %23

23:                                               ; preds = %.lr.ph, %83
  %.023 = phi ptr [ %2, %.lr.ph ], [ %84, %83 ]
  %.01722 = phi i64 [ 0, %.lr.ph ], [ %.1, %83 ]
  %.01820 = phi i64 [ 0, %.lr.ph ], [ %85, %83 ]
  %24 = load <2 x i64>, ptr %.023, align 8
  %25 = xor <2 x i64> %9, %24
  %26 = tail call <2 x i64> @llvm.ctpop.v2i64(<2 x i64> %25), !range !210
  %27 = trunc <2 x i64> %26 to <2 x i32>
  %shift = shufflevector <2 x i32> %27, <2 x i32> poison, <2 x i32> <i32 1, i32 poison>
  %28 = add nuw nsw <2 x i32> %shift, %27
  %29 = extractelement <2 x i32> %28, i64 0
  %30 = getelementptr inbounds i8, ptr %.023, i64 16
  %31 = load i32, ptr %30, align 4
  %32 = xor i32 %11, %31
  %33 = tail call i32 @llvm.ctpop.i32(i32 %32), !range !206
  %34 = add nuw nsw i32 %29, %33
  %35 = load i32, ptr %4, align 4
  %36 = icmp ult i32 %34, %35
  br i1 %36, label %37, label %83

37:                                               ; preds = %23
  br i1 %.not, label %40, label %38

38:                                               ; preds = %37
  %39 = or i64 %17, %.01820
  br label %43

40:                                               ; preds = %37
  %41 = getelementptr inbounds i64, ptr %3, i64 %.01820
  %42 = load i64, ptr %41, align 8
  br label %43

43:                                               ; preds = %40, %38
  %44 = phi i64 [ %39, %38 ], [ %42, %40 ]
  br i1 %20, label %_ZN5faiss16heap_replace_topINS_4CMaxIilEEEEvmPNT_1TEPNS3_2TIES4_S6_.exit, label %.lr.ph.i

.lr.ph.i:                                         ; preds = %43, %73
  %45 = phi i64 [ %78, %73 ], [ 3, %43 ]
  %46 = phi i64 [ %77, %73 ], [ 2, %43 ]
  %.056.i = phi i64 [ %.1.i, %73 ], [ 1, %43 ]
  %47 = icmp eq i64 %46, %6
  br i1 %47, label %.lr.ph._ZN5faiss4CMaxIilE4cmp2Eiill.exit.thread_crit_edge.i, label %48

.lr.ph._ZN5faiss4CMaxIilE4cmp2Eiill.exit.thread_crit_edge.i: ; preds = %.lr.ph.i
  %.pre.i = load i32, ptr %.phi.trans.insert.i, align 4
  br label %_ZN5faiss4CMaxIilE4cmp2Eiill.exit.thread.i

48:                                               ; preds = %.lr.ph.i
  %49 = getelementptr inbounds i32, ptr %18, i64 %46
  %50 = load i32, ptr %49, align 4
  %51 = getelementptr inbounds i32, ptr %18, i64 %45
  %52 = load i32, ptr %51, align 4
  %53 = getelementptr inbounds i64, ptr %19, i64 %45
  %54 = load i64, ptr %53, align 8
  %55 = icmp sgt i32 %50, %52
  br i1 %55, label %_ZN5faiss4CMaxIilE4cmp2Eiill.exit.thread.i, label %_ZN5faiss4CMaxIilE4cmp2Eiill.exit.i

_ZN5faiss4CMaxIilE4cmp2Eiill.exit.i:              ; preds = %48
  %56 = getelementptr inbounds i64, ptr %19, i64 %46
  %57 = load i64, ptr %56, align 8
  %58 = icmp eq i32 %50, %52
  %59 = icmp sgt i64 %57, %54
  %60 = and i1 %58, %59
  br i1 %60, label %_ZN5faiss4CMaxIilE4cmp2Eiill.exit.thread.i, label %68

_ZN5faiss4CMaxIilE4cmp2Eiill.exit.thread.i:       ; preds = %_ZN5faiss4CMaxIilE4cmp2Eiill.exit.i, %48, %.lr.ph._ZN5faiss4CMaxIilE4cmp2Eiill.exit.thread_crit_edge.i
  %61 = phi i32 [ %.pre.i, %.lr.ph._ZN5faiss4CMaxIilE4cmp2Eiill.exit.thread_crit_edge.i ], [ %50, %48 ], [ %50, %_ZN5faiss4CMaxIilE4cmp2Eiill.exit.i ]
  %62 = icmp slt i32 %61, %34
  br i1 %62, label %_ZN5faiss16heap_replace_topINS_4CMaxIilEEEEvmPNT_1TEPNS3_2TIES4_S6_.exit, label %_ZN5faiss4CMaxIilE4cmp2Eiill.exit54.i

_ZN5faiss4CMaxIilE4cmp2Eiill.exit54.i:            ; preds = %_ZN5faiss4CMaxIilE4cmp2Eiill.exit.thread.i
  %63 = getelementptr inbounds i64, ptr %19, i64 %46
  %64 = load i64, ptr %63, align 8
  %65 = icmp eq i32 %61, %34
  %66 = icmp slt i64 %64, %44
  %67 = and i1 %65, %66
  br i1 %67, label %_ZN5faiss16heap_replace_topINS_4CMaxIilEEEEvmPNT_1TEPNS3_2TIES4_S6_.exit, label %73

68:                                               ; preds = %_ZN5faiss4CMaxIilE4cmp2Eiill.exit.i
  %69 = icmp slt i32 %52, %34
  br i1 %69, label %_ZN5faiss16heap_replace_topINS_4CMaxIilEEEEvmPNT_1TEPNS3_2TIES4_S6_.exit, label %_ZN5faiss4CMaxIilE4cmp2Eiill.exit55.i

_ZN5faiss4CMaxIilE4cmp2Eiill.exit55.i:            ; preds = %68
  %70 = icmp eq i32 %52, %34
  %71 = icmp slt i64 %54, %44
  %72 = and i1 %70, %71
  br i1 %72, label %_ZN5faiss16heap_replace_topINS_4CMaxIilEEEEvmPNT_1TEPNS3_2TIES4_S6_.exit, label %73

73:                                               ; preds = %_ZN5faiss4CMaxIilE4cmp2Eiill.exit55.i, %_ZN5faiss4CMaxIilE4cmp2Eiill.exit54.i
  %74 = phi i64 [ %64, %_ZN5faiss4CMaxIilE4cmp2Eiill.exit54.i ], [ %54, %_ZN5faiss4CMaxIilE4cmp2Eiill.exit55.i ]
  %.sink.i = phi i32 [ %61, %_ZN5faiss4CMaxIilE4cmp2Eiill.exit54.i ], [ %52, %_ZN5faiss4CMaxIilE4cmp2Eiill.exit55.i ]
  %.1.i = phi i64 [ %46, %_ZN5faiss4CMaxIilE4cmp2Eiill.exit54.i ], [ %45, %_ZN5faiss4CMaxIilE4cmp2Eiill.exit55.i ]
  %75 = getelementptr inbounds i32, ptr %18, i64 %.056.i
  store i32 %.sink.i, ptr %75, align 4
  %76 = getelementptr inbounds i64, ptr %19, i64 %.056.i
  store i64 %74, ptr %76, align 8
  %77 = shl i64 %.1.i, 1
  %78 = or disjoint i64 %77, 1
  %79 = icmp ugt i64 %77, %6
  br i1 %79, label %_ZN5faiss16heap_replace_topINS_4CMaxIilEEEEvmPNT_1TEPNS3_2TIES4_S6_.exit, label %.lr.ph.i, !llvm.loop !208

_ZN5faiss16heap_replace_topINS_4CMaxIilEEEEvmPNT_1TEPNS3_2TIES4_S6_.exit: ; preds = %_ZN5faiss4CMaxIilE4cmp2Eiill.exit.thread.i, %_ZN5faiss4CMaxIilE4cmp2Eiill.exit54.i, %68, %_ZN5faiss4CMaxIilE4cmp2Eiill.exit55.i, %73, %43
  %.0.lcssa.i = phi i64 [ 1, %43 ], [ %.1.i, %73 ], [ %.056.i, %_ZN5faiss4CMaxIilE4cmp2Eiill.exit54.i ], [ %.056.i, %_ZN5faiss4CMaxIilE4cmp2Eiill.exit55.i ], [ %.056.i, %_ZN5faiss4CMaxIilE4cmp2Eiill.exit.thread.i ], [ %.056.i, %68 ]
  %80 = getelementptr inbounds i32, ptr %18, i64 %.0.lcssa.i
  store i32 %34, ptr %80, align 4
  %81 = getelementptr inbounds i64, ptr %19, i64 %.0.lcssa.i
  store i64 %44, ptr %81, align 8
  %82 = add i64 %.01722, 1
  br label %83

83:                                               ; preds = %_ZN5faiss16heap_replace_topINS_4CMaxIilEEEEvmPNT_1TEPNS3_2TIES4_S6_.exit, %23
  %.1 = phi i64 [ %82, %_ZN5faiss16heap_replace_topINS_4CMaxIilEEEEvmPNT_1TEPNS3_2TIES4_S6_.exit ], [ %.01722, %23 ]
  %84 = getelementptr inbounds i8, ptr %.023, i64 %22
  %85 = add nuw i64 %.01820, 1
  %exitcond.not = icmp eq i64 %85, %1
  br i1 %exitcond.not, label %._crit_edge, label %23, !llvm.loop !215

._crit_edge:                                      ; preds = %83, %7
  %.017.lcssa = phi i64 [ 0, %7 ], [ %.1, %83 ]
  ret i64 %.017.lcssa
}